target datalayout = "e-m:e-p270:32:32-p271:32:32-p272:64:64-i64:64-i128:128-f80:128-n8:16:32:64-S128"
target triple = "x86_64-pc-linux-gnu"

%"class.icu_77::(anonymous namespace)::MixedBlocks" = type <{ ptr, i32, i32, i32, i32, i32, [4 x i8] }>

; Function Attrs: inlinehint mustprogress nounwind uwtable
define internal noundef i32 @_ZNK6icu_7712_GLOBAL__N_111MixedBlocks9nextIndexEii(ptr noundef nonnull align 8 dereferenceable(28) %0, i32 noundef %1, i32 noundef %2) #1 align 2 {
  %4 = alloca ptr, align 8
  %5 = alloca i32, align 4
  %6 = alloca i32, align 4
  store ptr %0, ptr %4, align 8, !tbaa !98
  store i32 %1, ptr %5, align 4, !tbaa !3
  store i32 %2, ptr %6, align 4, !tbaa !3
  %7 = load ptr, ptr %4, align 8
  %8 = load i32, ptr %6, align 4, !tbaa !3
  %9 = load i32, ptr %5, align 4, !tbaa !3
  %10 = add nsw i32 %8, %9
  %11 = getelementptr inbounds nuw %"class.icu_77::(anonymous namespace)::MixedBlocks", ptr %7, i32 0, i32 2
  %12 = load i32, ptr %11, align 4, !tbaa !103
  %13 = srem i32 %10, %12
  ret i32 %13
}

; Function Attrs: mustprogress nounwind uwtable
define internal noundef zeroext i1 @_ZN6icu_7712_GLOBAL__N_111equalBlocksIjjEEbPKT_PKT0_i(ptr noundef %0, ptr noundef %1, i32 noundef %2) #4 {
  %4 = alloca ptr, align 8
  %5 = alloca ptr, align 8
  %6 = alloca i32, align 4
  store ptr %0, ptr %4, align 8, !tbaa !52
  store ptr %1, ptr %5, align 8, !tbaa !52
  store i32 %2, ptr %6, align 4, !tbaa !3
  br label %7

7:                                                ; preds = %18, %3
  %8 = load i32, ptr %6, align 4, !tbaa !3
  %9 = icmp sgt i32 %8, 0
  br i1 %9, label %10, label %16

10:                                               ; preds = %7
  %11 = load ptr, ptr %4, align 8, !tbaa !52
  %12 = load i32, ptr %11, align 4, !tbaa !3
  %13 = load ptr, ptr %5, align 8, !tbaa !52
  %14 = load i32, ptr %13, align 4, !tbaa !3
  %15 = icmp eq i32 %12, %14
  br label %16

16:                                               ; preds = %10, %7
  %17 = phi i1 [ false, %7 ], [ %15, %10 ]
  br i1 %17, label %18, label %25

18:                                               ; preds = %16
  %19 = load ptr, ptr %4, align 8, !tbaa !52
  %20 = getelementptr inbounds nuw i32, ptr %19, i32 1
  store ptr %20, ptr %4, align 8, !tbaa !52
  %21 = load ptr, ptr %5, align 8, !tbaa !52
  %22 = getelementptr inbounds nuw i32, ptr %21, i32 1
  store ptr %22, ptr %5, align 8, !tbaa !52
  %23 = load i32, ptr %6, align 4, !tbaa !3
  %24 = add nsw i32 %23, -1
  store i32 %24, ptr %6, align 4, !tbaa !3
  br label %7, !llvm.loop !133

25:                                               ; preds = %16
  %26 = load i32, ptr %6, align 4, !tbaa !3
  %27 = icmp eq i32 %26, 0
  ret i1 %27
}

; Function Attrs: mustprogress uwtable
define internal noundef i32 @_ZNK6icu_7712_GLOBAL__N_111MixedBlocks9findEntryIjjEEiPKT_PKT0_ij(ptr noundef nonnull align 8 dereferenceable(28) %0, ptr noundef %1, ptr noundef %2, i32 noundef %3, i32 noundef %4) #0 align 2 {
  %6 = alloca i32, align 4
  %7 = alloca ptr, align 8
  %8 = alloca ptr, align 8
  %9 = alloca ptr, align 8
  %10 = alloca i32, align 4
  %11 = alloca i32, align 4
  %12 = alloca i32, align 4
  %13 = alloca i32, align 4
  %14 = alloca i32, align 4
  %15 = alloca i32, align 4
  %16 = alloca i32, align 4
  %17 = alloca i32, align 4
  store ptr %0, ptr %7, align 8, !tbaa !98
  store ptr %1, ptr %8, align 8, !tbaa !52
  store ptr %2, ptr %9, align 8, !tbaa !52
  store i32 %3, ptr %10, align 4, !tbaa !3
  store i32 %4, ptr %11, align 4, !tbaa !3
  %18 = load ptr, ptr %7, align 8
  call void @llvm.lifetime.start.p0(i64 4, ptr %12) #11
  %19 = load i32, ptr %11, align 4, !tbaa !3
  %20 = getelementptr inbounds nuw %"class.icu_77::(anonymous namespace)::MixedBlocks", ptr %18, i32 0, i32 3
  %21 = load i32, ptr %20, align 8, !tbaa !104
  %22 = shl i32 %19, %21
  store i32 %22, ptr %12, align 4, !tbaa !3
  call void @llvm.lifetime.start.p0(i64 4, ptr %13) #11
  %23 = load i32, ptr %11, align 4, !tbaa !3
  %24 = getelementptr inbounds nuw %"class.icu_77::(anonymous namespace)::MixedBlocks", ptr %18, i32 0, i32 2
  %25 = load i32, ptr %24, align 4, !tbaa !103
  %26 = sub nsw i32 %25, 1
  %27 = urem i32 %23, %26
  %28 = add i32 %27, 1
  store i32 %28, ptr %13, align 4, !tbaa !3
  call void @llvm.lifetime.start.p0(i64 4, ptr %14) #11
  %29 = load i32, ptr %13, align 4, !tbaa !3
  store i32 %29, ptr %14, align 4, !tbaa !3
  br label %30

30:                                               ; preds = %79, %5
  call void @llvm.lifetime.start.p0(i64 4, ptr %15) #11
  %31 = getelementptr inbounds nuw %"class.icu_77::(anonymous namespace)::MixedBlocks", ptr %18, i32 0, i32 0
  %32 = load ptr, ptr %31, align 8, !tbaa !100
  %33 = load i32, ptr %14, align 4, !tbaa !3
  %34 = sext i32 %33 to i64
  %35 = getelementptr inbounds i32, ptr %32, i64 %34
  %36 = load i32, ptr %35, align 4, !tbaa !3
  store i32 %36, ptr %15, align 4, !tbaa !3
  %37 = load i32, ptr %15, align 4, !tbaa !3
  %38 = icmp eq i32 %37, 0
  br i1 %38, label %39, label %42

39:                                               ; preds = %30
  %40 = load i32, ptr %14, align 4, !tbaa !3
  %41 = xor i32 %40, -1
  store i32 %41, ptr %6, align 4
  store i32 1, ptr %16, align 4
  br label %77

42:                                               ; preds = %30
  %43 = load i32, ptr %15, align 4, !tbaa !3
  %44 = getelementptr inbounds nuw %"class.icu_77::(anonymous namespace)::MixedBlocks", ptr %18, i32 0, i32 4
  %45 = load i32, ptr %44, align 4, !tbaa !105
  %46 = xor i32 %45, -1
  %47 = and i32 %43, %46
  %48 = load i32, ptr %12, align 4, !tbaa !3
  %49 = icmp eq i32 %47, %48
  br i1 %49, label %50, label %73

50:                                               ; preds = %42
  call void @llvm.lifetime.start.p0(i64 4, ptr %17) #11
  %51 = load i32, ptr %15, align 4, !tbaa !3
  %52 = getelementptr inbounds nuw %"class.icu_77::(anonymous namespace)::MixedBlocks", ptr %18, i32 0, i32 4
  %53 = load i32, ptr %52, align 4, !tbaa !105
  %54 = and i32 %51, %53
  %55 = sub i32 %54, 1
  store i32 %55, ptr %17, align 4, !tbaa !3
  %56 = load ptr, ptr %8, align 8, !tbaa !52
  %57 = load i32, ptr %17, align 4, !tbaa !3
  %58 = sext i32 %57 to i64
  %59 = getelementptr inbounds i32, ptr %56, i64 %58
  %60 = load ptr, ptr %9, align 8, !tbaa !52
  %61 = load i32, ptr %10, align 4, !tbaa !3
  %62 = sext i32 %61 to i64
  %63 = getelementptr inbounds i32, ptr %60, i64 %62
  %64 = getelementptr inbounds nuw %"class.icu_77::(anonymous namespace)::MixedBlocks", ptr %18, i32 0, i32 5
  %65 = load i32, ptr %64, align 8, !tbaa !106
  %66 = call noundef zeroext i1 @_ZN6icu_7712_GLOBAL__N_111equalBlocksIjjEEbPKT_PKT0_i(ptr noundef %59, ptr noundef %63, i32 noundef %65)
  br i1 %66, label %67, label %69

67:                                               ; preds = %50
  %68 = load i32, ptr %14, align 4, !tbaa !3
  store i32 %68, ptr %6, align 4
  store i32 1, ptr %16, align 4
  br label %70

69:                                               ; preds = %50
  store i32 0, ptr %16, align 4
  br label %70

70:                                               ; preds = %69, %67
  call void @llvm.lifetime.end.p0(i64 4, ptr %17) #11
  %71 = load i32, ptr %16, align 4
  switch i32 %71, label %77 [
    i32 0, label %72
  ]

72:                                               ; preds = %70
  br label %73

73:                                               ; preds = %72, %42
  %74 = load i32, ptr %13, align 4, !tbaa !3
  %75 = load i32, ptr %14, align 4, !tbaa !3
  %76 = call noundef i32 @_ZNK6icu_7712_GLOBAL__N_111MixedBlocks9nextIndexEii(ptr noundef nonnull align 8 dereferenceable(28) %18, i32 noundef %74, i32 noundef %75)
  store i32 %76, ptr %14, align 4, !tbaa !3
  store i32 0, ptr %16, align 4
  br label %77

77:                                               ; preds = %73, %70, %39
  call void @llvm.lifetime.end.p0(i64 4, ptr %15) #11
  %78 = load i32, ptr %16, align 4
  switch i32 %78, label %80 [
    i32 0, label %79
  ]

79:                                               ; preds = %77
  br label %30, !llvm.loop !132

80:                                               ; preds = %77
  call void @llvm.lifetime.end.p0(i64 4, ptr %14) #11
  call void @llvm.lifetime.end.p0(i64 4, ptr %13) #11
  call void @llvm.lifetime.end.p0(i64 4, ptr %12) #11
  %81 = load i32, ptr %6, align 4
  ret i32 %81
}

; Function Attrs: mustprogress uwtable
define internal void @_ZN6icu_7712_GLOBAL__N_111MixedBlocks8addEntryIjEEvPKT_iji(ptr noundef nonnull align 8 dereferenceable(28) %0, ptr noundef %1, i32 noundef %2, i32 noundef %3, i32 noundef %4) #0 align 2 {
  %6 = alloca ptr, align 8
  %7 = alloca ptr, align 8
  %8 = alloca i32, align 4
  %9 = alloca i32, align 4
  %10 = alloca i32, align 4
  %11 = alloca i32, align 4
  store ptr %0, ptr %6, align 8, !tbaa !98
  store ptr %1, ptr %7, align 8, !tbaa !52
  store i32 %2, ptr %8, align 4, !tbaa !3
  store i32 %3, ptr %9, align 4, !tbaa !3
  store i32 %4, ptr %10, align 4, !tbaa !3
  %12 = load ptr, ptr %6, align 8
  call void @llvm.lifetime.start.p0(i64 4, ptr %11) #11
  %13 = load ptr, ptr %7, align 8, !tbaa !52
  %14 = load ptr, ptr %7, align 8, !tbaa !52
  %15 = load i32, ptr %8, align 4, !tbaa !3
  %16 = load i32, ptr %9, align 4, !tbaa !3
  %17 = call noundef i32 @_ZNK6icu_7712_GLOBAL__N_111MixedBlocks9findEntryIjjEEiPKT_PKT0_ij(ptr noundef nonnull align 8 dereferenceable(28) %12, ptr noundef %13, ptr noundef %14, i32 noundef %15, i32 noundef %16)
  store i32 %17, ptr %11, align 4, !tbaa !3
  %18 = load i32, ptr %11, align 4, !tbaa !3
  %19 = icmp slt i32 %18, 0
  br i1 %19, label %20, label %34

20:                                               ; preds = %5
  %21 = load i32, ptr %9, align 4, !tbaa !3
  %22 = getelementptr inbounds nuw %"class.icu_77::(anonymous namespace)::MixedBlocks", ptr %12, i32 0, i32 3
  %23 = load i32, ptr %22, align 8, !tbaa !104
  %24 = shl i32 %21, %23
  %25 = load i32, ptr %10, align 4, !tbaa !3
  %26 = add nsw i32 %25, 1
  %27 = or i32 %24, %26
  %28 = getelementptr inbounds nuw %"class.icu_77::(anonymous namespace)::MixedBlocks", ptr %12, i32 0, i32 0
  %29 = load ptr, ptr %28, align 8, !tbaa !100
  %30 = load i32, ptr %11, align 4, !tbaa !3
  %31 = xor i32 %30, -1
  %32 = sext i32 %31 to i64
  %33 = getelementptr inbounds i32, ptr %29, i64 %32
  store i32 %27, ptr %33, align 4, !tbaa !3
  br label %34

34:                                               ; preds = %20, %5
  call void @llvm.lifetime.end.p0(i64 4, ptr %11) #11
  ret void
}

; Function Attrs: mustprogress nounwind uwtable
define internal noundef i32 @_ZNK6icu_7712_GLOBAL__N_111MixedBlocks12makeHashCodeIjEEjPKT_i(ptr noundef nonnull align 8 dereferenceable(28) %0, ptr noundef %1, i32 noundef %2) #4 align 2 {
  %4 = alloca ptr, align 8
  %5 = alloca ptr, align 8
  %6 = alloca i32, align 4
  %7 = alloca i32, align 4
  %8 = alloca i32, align 4
  store ptr %0, ptr %4, align 8, !tbaa !98
  store ptr %1, ptr %5, align 8, !tbaa !52
  store i32 %2, ptr %6, align 4, !tbaa !3
  %9 = load ptr, ptr %4, align 8
  call void @llvm.lifetime.start.p0(i64 4, ptr %7) #11
  %10 = load i32, ptr %6, align 4, !tbaa !3
  %11 = getelementptr inbounds nuw %"class.icu_77::(anonymous namespace)::MixedBlocks", ptr %9, i32 0, i32 5
  %12 = load i32, ptr %11, align 8, !tbaa !106
  %13 = add nsw i32 %10, %12
  store i32 %13, ptr %7, align 4, !tbaa !3
  call void @llvm.lifetime.start.p0(i64 4, ptr %8) #11
  %14 = load ptr, ptr %5, align 8, !tbaa !52
  %15 = load i32, ptr %6, align 4, !tbaa !3
  %16 = add nsw i32 %15, 1
  store i32 %16, ptr %6, align 4, !tbaa !3
  %17 = sext i32 %15 to i64
  %18 = getelementptr inbounds i32, ptr %14, i64 %17
  %19 = load i32, ptr %18, align 4, !tbaa !3
  store i32 %19, ptr %8, align 4, !tbaa !3
  br label %20

20:                                               ; preds = %30, %3
  %21 = load i32, ptr %8, align 4, !tbaa !3
  %22 = mul i32 37, %21
  %23 = load ptr, ptr %5, align 8, !tbaa !52
  %24 = load i32, ptr %6, align 4, !tbaa !3
  %25 = add nsw i32 %24, 1
  store i32 %25, ptr %6, align 4, !tbaa !3
  %26 = sext i32 %24 to i64
  %27 = getelementptr inbounds i32, ptr %23, i64 %26
  %28 = load i32, ptr %27, align 4, !tbaa !3
  %29 = add i32 %22, %28
  store i32 %29, ptr %8, align 4, !tbaa !3
  br label %30

30:                                               ; preds = %20
  %31 = load i32, ptr %6, align 4, !tbaa !3
  %32 = load i32, ptr %7, align 4, !tbaa !3
  %33 = icmp slt i32 %31, %32
  br i1 %33, label %20, label %34, !llvm.loop !131

34:                                               ; preds = %30
  %35 = load i32, ptr %8, align 4, !tbaa !3
  call void @llvm.lifetime.end.p0(i64 4, ptr %8) #11
  call void @llvm.lifetime.end.p0(i64 4, ptr %7) #11
  ret i32 %35
}

; Function Attrs: mustprogress uwtable
define internal void @_ZN6icu_7712_GLOBAL__N_111MixedBlocks6extendIjEEvPKT_iii(ptr noundef nonnull align 8 dereferenceable(28) %0, ptr noundef %1, i32 noundef %2, i32 noundef %3, i32 noundef %4) #0 align 2 {
  %6 = alloca ptr, align 8
  %7 = alloca ptr, align 8
  %8 = alloca i32, align 4
  %9 = alloca i32, align 4
  %10 = alloca i32, align 4
  %11 = alloca i32, align 4
  %12 = alloca i32, align 4
  %13 = alloca i32, align 4
  store ptr %0, ptr %6, align 8, !tbaa !98
  store ptr %1, ptr %7, align 8, !tbaa !52
  store i32 %2, ptr %8, align 4, !tbaa !3
  store i32 %3, ptr %9, align 4, !tbaa !3
  store i32 %4, ptr %10, align 4, !tbaa !3
  %14 = load ptr, ptr %6, align 8
  call void @llvm.lifetime.start.p0(i64 4, ptr %11) #11
  %15 = load i32, ptr %9, align 4, !tbaa !3
  %16 = getelementptr inbounds nuw %"class.icu_77::(anonymous namespace)::MixedBlocks", ptr %14, i32 0, i32 5
  %17 = load i32, ptr %16, align 8, !tbaa !106
  %18 = sub nsw i32 %15, %17
  store i32 %18, ptr %11, align 4, !tbaa !3
  %19 = load i32, ptr %11, align 4, !tbaa !3
  %20 = load i32, ptr %8, align 4, !tbaa !3
  %21 = icmp sge i32 %19, %20
  br i1 %21, label %22, label %25

22:                                               ; preds = %5
  %23 = load i32, ptr %11, align 4, !tbaa !3
  %24 = add nsw i32 %23, 1
  store i32 %24, ptr %11, align 4, !tbaa !3
  br label %27

25:                                               ; preds = %5
  %26 = load i32, ptr %8, align 4, !tbaa !3
  store i32 %26, ptr %11, align 4, !tbaa !3
  br label %27

27:                                               ; preds = %25, %22
  call void @llvm.lifetime.start.p0(i64 4, ptr %12) #11
  %28 = load i32, ptr %10, align 4, !tbaa !3
  %29 = getelementptr inbounds nuw %"class.icu_77::(anonymous namespace)::MixedBlocks", ptr %14, i32 0, i32 5
  %30 = load i32, ptr %29, align 8, !tbaa !106
  %31 = sub nsw i32 %28, %30
  store i32 %31, ptr %12, align 4, !tbaa !3
  br label %32

32:                                               ; preds = %45, %27
  %33 = load i32, ptr %11, align 4, !tbaa !3
  %34 = load i32, ptr %12, align 4, !tbaa !3
  %35 = icmp sle i32 %33, %34
  br i1 %35, label %37, label %36

36:                                               ; preds = %32
  call void @llvm.lifetime.end.p0(i64 4, ptr %12) #11
  br label %48

37:                                               ; preds = %32
  call void @llvm.lifetime.start.p0(i64 4, ptr %13) #11
  %38 = load ptr, ptr %7, align 8, !tbaa !52
  %39 = load i32, ptr %11, align 4, !tbaa !3
  %40 = call noundef i32 @_ZNK6icu_7712_GLOBAL__N_111MixedBlocks12makeHashCodeIjEEjPKT_i(ptr noundef nonnull align 8 dereferenceable(28) %14, ptr noundef %38, i32 noundef %39)
  store i32 %40, ptr %13, align 4, !tbaa !3
  %41 = load ptr, ptr %7, align 8, !tbaa !52
  %42 = load i32, ptr %11, align 4, !tbaa !3
  %43 = load i32, ptr %13, align 4, !tbaa !3
  %44 = load i32, ptr %11, align 4, !tbaa !3
  call void @_ZN6icu_7712_GLOBAL__N_111MixedBlocks8addEntryIjEEvPKT_iji(ptr noundef nonnull align 8 dereferenceable(28) %14, ptr noundef %41, i32 noundef %42, i32 noundef %43, i32 noundef %44)
  call void @llvm.lifetime.end.p0(i64 4, ptr %13) #11
  br label %45

45:                                               ; preds = %37
  %46 = load i32, ptr %11, align 4, !tbaa !3
  %47 = add nsw i32 %46, 1
  store i32 %47, ptr %11, align 4, !tbaa !3
  br label %32, !llvm.loop !125

48:                                               ; preds = %36
  call void @llvm.lifetime.end.p0(i64 4, ptr %11) #11
  ret void
}