; Function Attrs: mustprogress nofree norecurse nosync nounwind memory(readwrite, inaccessiblemem: none) uwtable
define internal fastcc void @_ZN6icu_7712_GLOBAL__N_111MixedBlocks6extendIjEEvPKT_iii(ptr noundef nonnull readonly align 8 captures(none) dereferenceable(28) %0, ptr noundef nonnull readonly captures(none) %1, i32 noundef range(i32 0, -2147483648) %2, i32 noundef range(i32 128, -2147483648) %3) unnamed_addr #11 align 2 {
  %5 = getelementptr inbounds nuw i8, ptr %0, i64 24
  %6 = load i32, ptr %5, align 8, !tbaa !62
  %7 = sub nsw i32 %2, %6
  %8 = tail call i32 @llvm.smax.i32(i32 %7, i32 -1)
  %.0 = add i32 %8, 1
  %9 = sub nsw i32 %3, %6
  %.not25 = icmp sgt i32 %.0, %9
  br i1 %.not25, label %._crit_edge, label %.lr.ph

.lr.ph:                                           ; preds = %4
  %10 = getelementptr inbounds nuw i8, ptr %0, i64 16
  %11 = getelementptr inbounds nuw i8, ptr %0, i64 12
  %12 = load ptr, ptr %0, align 8, !tbaa !58
  %13 = getelementptr inbounds nuw i8, ptr %0, i64 20
  br label %14

._crit_edge:                                      ; preds = %_ZN6icu_7712_GLOBAL__N_111MixedBlocks8addEntryIjEEvPKT_iji.exit, %4
  ret void

14:                                               ; preds = %.lr.ph, %_ZN6icu_7712_GLOBAL__N_111MixedBlocks8addEntryIjEEvPKT_iji.exit
  %.126 = phi i32 [ %.0, %.lr.ph ], [ %16, %_ZN6icu_7712_GLOBAL__N_111MixedBlocks8addEntryIjEEvPKT_iji.exit ]
  %.val = load i32, ptr %5, align 8, !tbaa !62
  %.fr46.i.i = freeze i32 %.val
  %15 = add nsw i32 %.fr46.i.i, %.126
  %16 = add i32 %.126, 1
  %17 = sext i32 %.126 to i64
  %18 = getelementptr inbounds i32, ptr %1, i64 %17
  %19 = load i32, ptr %18, align 4, !tbaa !25
  %20 = sext i32 %16 to i64
  %21 = sext i32 %15 to i64
  br label %22

22:                                               ; preds = %22, %14
  %indvars.iv.i = phi i64 [ %indvars.iv.next.i, %22 ], [ %20, %14 ]
  %.0.i = phi i32 [ %26, %22 ], [ %19, %14 ]
  %23 = mul i32 %.0.i, 37
  %indvars.iv.next.i = add nsw i64 %indvars.iv.i, 1
  %24 = getelementptr inbounds i32, ptr %1, i64 %indvars.iv.i
  %25 = load i32, ptr %24, align 4, !tbaa !25
  %26 = add i32 %23, %25
  %27 = icmp slt i64 %indvars.iv.next.i, %21
  br i1 %27, label %22, label %_ZNK6icu_7712_GLOBAL__N_111MixedBlocks12makeHashCodeIjEEjPKT_i.exit, !llvm.loop !71

_ZNK6icu_7712_GLOBAL__N_111MixedBlocks12makeHashCodeIjEEjPKT_i.exit: ; preds = %22
  %28 = load i32, ptr %10, align 8, !tbaa !55
  %29 = shl i32 %26, %28
  %30 = load i32, ptr %11, align 4, !tbaa !61
  %31 = add nsw i32 %30, -1
  %32 = urem i32 %26, %31
  %33 = add nuw i32 %32, 1
  %34 = sext i32 %33 to i64
  %35 = getelementptr inbounds i32, ptr %12, i64 %34
  %36 = load i32, ptr %35, align 4, !tbaa !25
  %37 = icmp eq i32 %36, 0
  br i1 %37, label %._crit_edge.i.i, label %.lr.ph.i.i

.lr.ph.i.i:                                       ; preds = %_ZNK6icu_7712_GLOBAL__N_111MixedBlocks12makeHashCodeIjEEjPKT_i.exit
  %38 = load i32, ptr %13, align 4, !tbaa !57
  %39 = xor i32 %38, -1
  %40 = zext nneg i32 %.126 to i64
  %41 = getelementptr inbounds nuw i32, ptr %1, i64 %40
  %42 = icmp sgt i32 %.fr46.i.i, 0
  br i1 %42, label %.lr.ph.split.us.i.i, label %.lr.ph.split.i.i

.lr.ph.split.us.i.i:                              ; preds = %.lr.ph.i.i, %_ZN6icu_7712_GLOBAL__N_111equalBlocksIjjEEbPKT_PKT0_i.exit.thread27.us.i.i
  %43 = phi i32 [ %57, %_ZN6icu_7712_GLOBAL__N_111equalBlocksIjjEEbPKT_PKT0_i.exit.thread27.us.i.i ], [ %36, %.lr.ph.i.i ]
  %.02237.us.i.i = phi i32 [ %54, %_ZN6icu_7712_GLOBAL__N_111equalBlocksIjjEEbPKT_PKT0_i.exit.thread27.us.i.i ], [ %33, %.lr.ph.i.i ]
  %44 = and i32 %43, %39
  %45 = icmp eq i32 %44, %29
  br i1 %45, label %.lr.ph.i.preheader.us.i.i, label %_ZN6icu_7712_GLOBAL__N_111equalBlocksIjjEEbPKT_PKT0_i.exit.thread27.us.i.i

.lr.ph.i.preheader.us.i.i:                        ; preds = %.lr.ph.split.us.i.i
  %46 = and i32 %43, %38
  %47 = add i32 %46, -1
  %48 = sext i32 %47 to i64
  %49 = getelementptr inbounds i32, ptr %1, i64 %48
  br label %.lr.ph.i.us.i.i

.lr.ph.i.us.i.i:                                  ; preds = %59, %.lr.ph.i.preheader.us.i.i
  %.010.i.us.i.i = phi i32 [ %62, %59 ], [ %.fr46.i.i, %.lr.ph.i.preheader.us.i.i ]
  %.069.i.us.i.i = phi ptr [ %61, %59 ], [ %41, %.lr.ph.i.preheader.us.i.i ]
  %.078.i.us.i.i = phi ptr [ %60, %59 ], [ %49, %.lr.ph.i.preheader.us.i.i ]
  %50 = load i32, ptr %.078.i.us.i.i, align 4, !tbaa !25
  %51 = load i32, ptr %.069.i.us.i.i, align 4, !tbaa !25
  %52 = icmp eq i32 %50, %51
  br i1 %52, label %59, label %_ZN6icu_7712_GLOBAL__N_111equalBlocksIjjEEbPKT_PKT0_i.exit.thread27.us.i.i

_ZN6icu_7712_GLOBAL__N_111equalBlocksIjjEEbPKT_PKT0_i.exit.thread27.us.i.i: ; preds = %.lr.ph.i.us.i.i, %.lr.ph.split.us.i.i
  %53 = add nsw i32 %.02237.us.i.i, %33
  %54 = srem i32 %53, %30
  %55 = sext i32 %54 to i64
  %56 = getelementptr inbounds i32, ptr %12, i64 %55
  %57 = load i32, ptr %56, align 4, !tbaa !25
  %58 = icmp eq i32 %57, 0
  br i1 %58, label %._crit_edge.i.i, label %.lr.ph.split.us.i.i, !llvm.loop !72

59:                                               ; preds = %.lr.ph.i.us.i.i
  %60 = getelementptr inbounds nuw i8, ptr %.078.i.us.i.i, i64 4
  %61 = getelementptr inbounds nuw i8, ptr %.069.i.us.i.i, i64 4
  %62 = add nsw i32 %.010.i.us.i.i, -1
  %63 = icmp sgt i32 %.010.i.us.i.i, 1
  br i1 %63, label %.lr.ph.i.us.i.i, label %_ZNK6icu_7712_GLOBAL__N_111MixedBlocks9findEntryIjjEEiPKT_PKT0_ij.exit.i, !llvm.loop !73

.lr.ph.split.i.i:                                 ; preds = %.lr.ph.i.i
  %64 = icmp eq i32 %.fr46.i.i, 0
  br i1 %64, label %.lr.ph.split.split.us.i.i, label %.lr.ph.split.split.i.i

.lr.ph.split.split.us.i.i:                        ; preds = %.lr.ph.split.i.i, %_ZN6icu_7712_GLOBAL__N_111equalBlocksIjjEEbPKT_PKT0_i.exit.thread27.us40.i.i
  %65 = phi i32 [ %72, %_ZN6icu_7712_GLOBAL__N_111equalBlocksIjjEEbPKT_PKT0_i.exit.thread27.us40.i.i ], [ %36, %.lr.ph.split.i.i ]
  %.02237.us39.i.i = phi i32 [ %69, %_ZN6icu_7712_GLOBAL__N_111equalBlocksIjjEEbPKT_PKT0_i.exit.thread27.us40.i.i ], [ %33, %.lr.ph.split.i.i ]
  %66 = and i32 %65, %39
  %67 = icmp eq i32 %66, %29
  br i1 %67, label %_ZNK6icu_7712_GLOBAL__N_111MixedBlocks9findEntryIjjEEiPKT_PKT0_ij.exit.i, label %_ZN6icu_7712_GLOBAL__N_111equalBlocksIjjEEbPKT_PKT0_i.exit.thread27.us40.i.i

_ZN6icu_7712_GLOBAL__N_111equalBlocksIjjEEbPKT_PKT0_i.exit.thread27.us40.i.i: ; preds = %.lr.ph.split.split.us.i.i
  %68 = add nsw i32 %.02237.us39.i.i, %33
  %69 = srem i32 %68, %30
  %70 = sext i32 %69 to i64
  %71 = getelementptr inbounds i32, ptr %12, i64 %70
  %72 = load i32, ptr %71, align 4, !tbaa !25
  %73 = icmp eq i32 %72, 0
  br i1 %73, label %._crit_edge.i.i, label %.lr.ph.split.split.us.i.i, !llvm.loop !72

._crit_edge.i.i:                                  ; preds = %.lr.ph.split.split.i.i, %_ZN6icu_7712_GLOBAL__N_111equalBlocksIjjEEbPKT_PKT0_i.exit.thread27.us40.i.i, %_ZN6icu_7712_GLOBAL__N_111equalBlocksIjjEEbPKT_PKT0_i.exit.thread27.us.i.i, %_ZNK6icu_7712_GLOBAL__N_111MixedBlocks12makeHashCodeIjEEjPKT_i.exit
  %.022.lcssa.i.i = phi i32 [ %33, %_ZNK6icu_7712_GLOBAL__N_111MixedBlocks12makeHashCodeIjEEjPKT_i.exit ], [ %54, %_ZN6icu_7712_GLOBAL__N_111equalBlocksIjjEEbPKT_PKT0_i.exit.thread27.us.i.i ], [ %69, %_ZN6icu_7712_GLOBAL__N_111equalBlocksIjjEEbPKT_PKT0_i.exit.thread27.us40.i.i ], [ %76, %.lr.ph.split.split.i.i ]
  %74 = xor i32 %.022.lcssa.i.i, -1
  br label %_ZNK6icu_7712_GLOBAL__N_111MixedBlocks9findEntryIjjEEiPKT_PKT0_ij.exit.i

.lr.ph.split.split.i.i:                           ; preds = %.lr.ph.split.i.i, %.lr.ph.split.split.i.i
  %.02237.i.i = phi i32 [ %76, %.lr.ph.split.split.i.i ], [ %33, %.lr.ph.split.i.i ]
  %75 = add nsw i32 %.02237.i.i, %33
  %76 = srem i32 %75, %30
  %77 = sext i32 %76 to i64
  %78 = getelementptr inbounds i32, ptr %12, i64 %77
  %79 = load i32, ptr %78, align 4, !tbaa !25
  %80 = icmp eq i32 %79, 0
  br i1 %80, label %._crit_edge.i.i, label %.lr.ph.split.split.i.i, !llvm.loop !72

_ZNK6icu_7712_GLOBAL__N_111MixedBlocks9findEntryIjjEEiPKT_PKT0_ij.exit.i: ; preds = %.lr.ph.split.split.us.i.i, %59, %._crit_edge.i.i
  %.1.ph.i.i = phi i32 [ %74, %._crit_edge.i.i ], [ %.02237.us.i.i, %59 ], [ %.02237.us39.i.i, %.lr.ph.split.split.us.i.i ]
  %81 = icmp slt i32 %.1.ph.i.i, 0
  br i1 %81, label %82, label %_ZN6icu_7712_GLOBAL__N_111MixedBlocks8addEntryIjEEvPKT_iji.exit

82:                                               ; preds = %_ZNK6icu_7712_GLOBAL__N_111MixedBlocks9findEntryIjjEEiPKT_PKT0_ij.exit.i
  %83 = or i32 %29, %16
  %84 = xor i32 %.1.ph.i.i, -1
  %85 = zext nneg i32 %84 to i64
  %86 = getelementptr inbounds nuw i32, ptr %12, i64 %85
  store i32 %83, ptr %86, align 4, !tbaa !25
  br label %_ZN6icu_7712_GLOBAL__N_111MixedBlocks8addEntryIjEEvPKT_iji.exit

_ZN6icu_7712_GLOBAL__N_111MixedBlocks8addEntryIjEEvPKT_iji.exit: ; preds = %_ZNK6icu_7712_GLOBAL__N_111MixedBlocks9findEntryIjjEEiPKT_PKT0_ij.exit.i, %82
  %.not = icmp sgt i32 %16, %9
  br i1 %.not, label %._crit_edge, label %14, !llvm.loop !105
}